; Function Attrs: mustprogress nofree norecurse nosync nounwind memory(readwrite, inaccessiblemem: none) uwtable
define hidden noundef ptr @_ZN3smt19conflict_resolution20find_common_ancestorEPNS_5enodeES2_(ptr noundef nonnull readnone align 8 captures(none) dereferenceable(356) %0, ptr noundef captures(address_is_null) %1, ptr noundef readonly captures(ret: address, provenance) %2) local_unnamed_addr #7 align 2 {
  %.not3.i = icmp eq ptr %1, null
  br i1 %.not3.i, label %_ZN3smt19conflict_resolution20mark_enodes_in_transILb1EEEvPNS_5enodeE.exit, label %.lr.ph.i

.lr.ph.i:                                         ; preds = %3, %.lr.ph.i
  %.04.i = phi ptr [ %8, %.lr.ph.i ], [ %1, %3 ]
  %4 = getelementptr inbounds nuw i8, ptr %.04.i, i64 44
  %5 = load i16, ptr %4, align 4
  %6 = or i16 %5, 2
  store i16 %6, ptr %4, align 4
  %7 = getelementptr inbounds nuw i8, ptr %.04.i, i64 80
  %8 = load ptr, ptr %7, align 8, !tbaa !124
  %.not.i = icmp eq ptr %8, null
  br i1 %.not.i, label %_ZN3smt19conflict_resolution20mark_enodes_in_transILb1EEEvPNS_5enodeE.exit, label %.lr.ph.i, !llvm.loop !137

_ZN3smt19conflict_resolution20mark_enodes_in_transILb1EEEvPNS_5enodeE.exit: ; preds = %.lr.ph.i, %3
  %9 = getelementptr inbounds nuw i8, ptr %2, i64 44
  %10 = load i16, ptr %9, align 4
  %11 = and i16 %10, 2
  %.not10 = icmp eq i16 %11, 0
  br i1 %.not10, label %.lr.ph, label %._crit_edge

._crit_edge:                                      ; preds = %.lr.ph, %_ZN3smt19conflict_resolution20mark_enodes_in_transILb1EEEvPNS_5enodeE.exit
  %.0.lcssa = phi ptr [ %2, %_ZN3smt19conflict_resolution20mark_enodes_in_transILb1EEEvPNS_5enodeE.exit ], [ %18, %.lr.ph ]
  br i1 %.not3.i, label %_ZN3smt19conflict_resolution20mark_enodes_in_transILb0EEEvPNS_5enodeE.exit, label %.lr.ph.i7

.lr.ph.i7:                                        ; preds = %._crit_edge, %.lr.ph.i7
  %.04.i8 = phi ptr [ %16, %.lr.ph.i7 ], [ %1, %._crit_edge ]
  %12 = getelementptr inbounds nuw i8, ptr %.04.i8, i64 44
  %13 = load i16, ptr %12, align 4
  %14 = and i16 %13, -3
  store i16 %14, ptr %12, align 4
  %15 = getelementptr inbounds nuw i8, ptr %.04.i8, i64 80
  %16 = load ptr, ptr %15, align 8, !tbaa !124
  %.not.i9 = icmp eq ptr %16, null
  br i1 %.not.i9, label %_ZN3smt19conflict_resolution20mark_enodes_in_transILb0EEEvPNS_5enodeE.exit, label %.lr.ph.i7, !llvm.loop !138

_ZN3smt19conflict_resolution20mark_enodes_in_transILb0EEEvPNS_5enodeE.exit: ; preds = %.lr.ph.i7, %._crit_edge
  ret ptr %.0.lcssa

.lr.ph:                                           ; preds = %_ZN3smt19conflict_resolution20mark_enodes_in_transILb1EEEvPNS_5enodeE.exit, %.lr.ph
  %.011 = phi ptr [ %18, %.lr.ph ], [ %2, %_ZN3smt19conflict_resolution20mark_enodes_in_transILb1EEEvPNS_5enodeE.exit ]
  %17 = getelementptr inbounds nuw i8, ptr %.011, i64 80
  %18 = load ptr, ptr %17, align 8, !tbaa !124
  %19 = getelementptr inbounds nuw i8, ptr %18, i64 44
  %20 = load i16, ptr %19, align 4
  %21 = and i16 %20, 2
  %.not = icmp eq i16 %21, 0
  br i1 %.not, label %.lr.ph, label %._crit_edge, !llvm.loop !139
}